; Function Attrs: nounwind uwtable
define noalias noundef ptr @Mux_ManAlloc(ptr noundef %0) local_unnamed_addr #0 {
  %2 = tail call noalias dereferenceable_or_null(24) ptr @calloc(i64 noundef 1, i64 noundef 24) #29
  store ptr %0, ptr %2, align 8
  %3 = tail call ptr @Abc_NamStart(i32 noundef 10000, i32 noundef 50) #26
  %4 = getelementptr inbounds nuw i8, ptr %2, i64 8
  store ptr %3, ptr %4, align 8
  %5 = tail call noalias dereferenceable_or_null(16) ptr @malloc(i64 noundef 16) #28
  %6 = getelementptr inbounds nuw i8, ptr %5, i64 4
  store i32 0, ptr %6, align 4
  store i32 1000, ptr %5, align 8
  %7 = tail call noalias dereferenceable_or_null(16000) ptr @calloc(i64 noundef 1000, i64 noundef 16) #29
  %8 = getelementptr inbounds nuw i8, ptr %5, i64 8
  store ptr %7, ptr %8, align 8
  %9 = getelementptr inbounds nuw i8, ptr %2, i64 16
  store ptr %5, ptr %9, align 8
  tail call fastcc void @Vec_WecPushLevel(ptr noundef nonnull %5)
  ret ptr %2
}